; Listing generated by Microsoft (R) Optimizing Compiler Version 19.40.33808.0 

	TITLE	D:\DZ\UNIK\MT\nastya\Mod3.obj
	.686P
	.XMM
	include listing.inc
	.model	flat

INCLUDELIB LIBCMT
INCLUDELIB OLDNAMES

PUBLIC	?product@@YAHHQAM00@Z				; product
EXTRN	__fltused:DWORD
; Function compile flags: /Odtp
; File D:\DZ\UNIK\MT\nastya\Mod3.cpp
_TEXT	SEGMENT
_n$ = 8							; size = 4
_v$ = 12						; size = 4
_w$ = 16						; size = 4
_result$ = 20						; size = 4
?product@@YAHHQAM00@Z PROC				; product

; 6    : {

  00000	55		 push	 ebp
  00001	8b ec		 mov	 ebp, esp
  00003	56		 push	 esi

; 7    :     if (n != 3) return 1;

  00004	83 7d 08 03	 cmp	 DWORD PTR _n$[ebp], 3
  00008	74 0a		 je	 SHORT $LN2@product
  0000a	b8 01 00 00 00	 mov	 eax, 1
  0000f	e9 f9 00 00 00	 jmp	 $LN1@product
$LN2@product:

; 8    : 
; 9    :     result[0] = v[1] * w[2] - v[2] * w[1];

  00014	b8 04 00 00 00	 mov	 eax, 4
  00019	c1 e0 00	 shl	 eax, 0
  0001c	b9 04 00 00 00	 mov	 ecx, 4
  00021	d1 e1		 shl	 ecx, 1
  00023	8b 55 0c	 mov	 edx, DWORD PTR _v$[ebp]
  00026	8b 75 10	 mov	 esi, DWORD PTR _w$[ebp]
  00029	f3 0f 10 04 02	 movss	 xmm0, DWORD PTR [edx+eax]
  0002e	f3 0f 59 04 0e	 mulss	 xmm0, DWORD PTR [esi+ecx]
  00033	b8 04 00 00 00	 mov	 eax, 4
  00038	d1 e0		 shl	 eax, 1
  0003a	b9 04 00 00 00	 mov	 ecx, 4
  0003f	c1 e1 00	 shl	 ecx, 0
  00042	8b 55 0c	 mov	 edx, DWORD PTR _v$[ebp]
  00045	8b 75 10	 mov	 esi, DWORD PTR _w$[ebp]
  00048	f3 0f 10 0c 02	 movss	 xmm1, DWORD PTR [edx+eax]
  0004d	f3 0f 59 0c 0e	 mulss	 xmm1, DWORD PTR [esi+ecx]
  00052	f3 0f 5c c1	 subss	 xmm0, xmm1
  00056	b8 04 00 00 00	 mov	 eax, 4
  0005b	6b c8 00	 imul	 ecx, eax, 0
  0005e	8b 55 14	 mov	 edx, DWORD PTR _result$[ebp]
  00061	f3 0f 11 04 0a	 movss	 DWORD PTR [edx+ecx], xmm0

; 10   :     result[1] = v[2] * w[0] - v[0] * w[2];

  00066	b8 04 00 00 00	 mov	 eax, 4
  0006b	d1 e0		 shl	 eax, 1
  0006d	b9 04 00 00 00	 mov	 ecx, 4
  00072	6b d1 00	 imul	 edx, ecx, 0
  00075	8b 4d 0c	 mov	 ecx, DWORD PTR _v$[ebp]
  00078	8b 75 10	 mov	 esi, DWORD PTR _w$[ebp]
  0007b	f3 0f 10 04 01	 movss	 xmm0, DWORD PTR [ecx+eax]
  00080	f3 0f 59 04 16	 mulss	 xmm0, DWORD PTR [esi+edx]
  00085	ba 04 00 00 00	 mov	 edx, 4
  0008a	6b c2 00	 imul	 eax, edx, 0
  0008d	b9 04 00 00 00	 mov	 ecx, 4
  00092	d1 e1		 shl	 ecx, 1
  00094	8b 55 0c	 mov	 edx, DWORD PTR _v$[ebp]
  00097	8b 75 10	 mov	 esi, DWORD PTR _w$[ebp]
  0009a	f3 0f 10 0c 02	 movss	 xmm1, DWORD PTR [edx+eax]
  0009f	f3 0f 59 0c 0e	 mulss	 xmm1, DWORD PTR [esi+ecx]
  000a4	f3 0f 5c c1	 subss	 xmm0, xmm1
  000a8	b8 04 00 00 00	 mov	 eax, 4
  000ad	c1 e0 00	 shl	 eax, 0
  000b0	8b 4d 14	 mov	 ecx, DWORD PTR _result$[ebp]
  000b3	f3 0f 11 04 01	 movss	 DWORD PTR [ecx+eax], xmm0

; 11   :     result[2] = v[0] * w[1] - v[1] * w[0];

  000b8	ba 04 00 00 00	 mov	 edx, 4
  000bd	6b c2 00	 imul	 eax, edx, 0
  000c0	b9 04 00 00 00	 mov	 ecx, 4
  000c5	c1 e1 00	 shl	 ecx, 0
  000c8	8b 55 0c	 mov	 edx, DWORD PTR _v$[ebp]
  000cb	8b 75 10	 mov	 esi, DWORD PTR _w$[ebp]
  000ce	f3 0f 10 04 02	 movss	 xmm0, DWORD PTR [edx+eax]
  000d3	f3 0f 59 04 0e	 mulss	 xmm0, DWORD PTR [esi+ecx]
  000d8	b8 04 00 00 00	 mov	 eax, 4
  000dd	c1 e0 00	 shl	 eax, 0
  000e0	b9 04 00 00 00	 mov	 ecx, 4
  000e5	6b d1 00	 imul	 edx, ecx, 0
  000e8	8b 4d 0c	 mov	 ecx, DWORD PTR _v$[ebp]
  000eb	8b 75 10	 mov	 esi, DWORD PTR _w$[ebp]
  000ee	f3 0f 10 0c 01	 movss	 xmm1, DWORD PTR [ecx+eax]
  000f3	f3 0f 59 0c 16	 mulss	 xmm1, DWORD PTR [esi+edx]
  000f8	f3 0f 5c c1	 subss	 xmm0, xmm1
  000fc	ba 04 00 00 00	 mov	 edx, 4
  00101	d1 e2		 shl	 edx, 1
  00103	8b 45 14	 mov	 eax, DWORD PTR _result$[ebp]
  00106	f3 0f 11 04 10	 movss	 DWORD PTR [eax+edx], xmm0

; 12   : 
; 13   :     return 0;

  0010b	33 c0		 xor	 eax, eax
$LN1@product:

; 14   : }

  0010d	5e		 pop	 esi
  0010e	5d		 pop	 ebp
  0010f	c3		 ret	 0
?product@@YAHHQAM00@Z ENDP				; product
_TEXT	ENDS
END
