; Listing generated by Microsoft (R) Optimizing Compiler Version 19.40.33808.0 

	TITLE	d:\dz\unik\mt\nastya\slntwomodules\twomodules\release\mod2.obj
	.686P
	.XMM
	include listing.inc
	.model	flat

INCLUDELIB OLDNAMES

EXTRN	@__security_check_cookie@4:PROC
PUBLIC	?scalar@@YAHHQAM0PAM@Z				; scalar
PUBLIC	__real@00000000
EXTRN	___CxxFrameHandler3:PROC
EXTRN	___security_cookie:DWORD
EXTRN	__fltused:DWORD
;	COMDAT __real@00000000
CONST	SEGMENT
__real@00000000 DD 000000000r			; 0
CONST	ENDS
; Function compile flags: /Ogtp
; File D:\DZ\UNIK\MT\nastya\slnTwoModules\TwoModules\Mod2.cpp
;	COMDAT ?scalar@@YAHHQAM0PAM@Z
_TEXT	SEGMENT
_w$ = 8							; size = 4
_vw$ = 12						; size = 4
?scalar@@YAHHQAM0PAM@Z PROC				; scalar, COMDAT
; _n$dead$ = ecx
; _v$ = edx

; 7    : {

  00000	55		 push	 ebp
  00001	8b ec		 mov	 ebp, esp

; 8    : 	if (n != 3) return 1;
; 9    : 	*vw = 0;
; 10   : 	for (int i = 0; i < n; i++)
; 11   : 		*vw = *vw + v[i] * w[i];

  00003	8b 45 08	 mov	 eax, DWORD PTR _w$[ebp]
  00006	f3 0f 10 02	 movss	 xmm0, DWORD PTR [edx]
  0000a	f3 0f 10 4a 04	 movss	 xmm1, DWORD PTR [edx+4]
  0000f	f3 0f 59 00	 mulss	 xmm0, DWORD PTR [eax]
  00013	f3 0f 59 48 04	 mulss	 xmm1, DWORD PTR [eax+4]
  00018	f3 0f 58 05 00
	00 00 00	 addss	 xmm0, DWORD PTR __real@00000000
  00020	f3 0f 58 c8	 addss	 xmm1, xmm0
  00024	f3 0f 10 42 08	 movss	 xmm0, DWORD PTR [edx+8]
  00029	f3 0f 59 40 08	 mulss	 xmm0, DWORD PTR [eax+8]
  0002e	8b 45 0c	 mov	 eax, DWORD PTR _vw$[ebp]
  00031	f3 0f 58 c8	 addss	 xmm1, xmm0
  00035	f3 0f 11 08	 movss	 DWORD PTR [eax], xmm1

; 12   : 	return 0;

  00039	33 c0		 xor	 eax, eax

; 13   : 
; 14   : }

  0003b	5d		 pop	 ebp
  0003c	c3		 ret	 0
?scalar@@YAHHQAM0PAM@Z ENDP				; scalar
_TEXT	ENDS
END
