; Listing generated by Microsoft (R) Optimizing Compiler Version 19.40.33808.0 

	TITLE	d:\dz\unik\mt\nastya\slntwomodules\twomodules\release\mod3.obj
	.686P
	.XMM
	include listing.inc
	.model	flat

INCLUDELIB OLDNAMES

PUBLIC	?product@@YAHHQAM00@Z				; product
; Function compile flags: /Ogtp
; File D:\DZ\UNIK\MT\nastya\slnTwoModules\TwoModules\Mod3.cpp
;	COMDAT ?product@@YAHHQAM00@Z
_TEXT	SEGMENT
_w$ = 8							; size = 4
_result$ = 12						; size = 4
?product@@YAHHQAM00@Z PROC				; product, COMDAT
; _n$dead$ = ecx
; _v$ = edx

; 6    : {

  00000	55		 push	 ebp
  00001	8b ec		 mov	 ebp, esp

; 7    :     if (n != 3) return 1;
; 8    : 
; 9    :     result[0] = v[1] * w[2] - v[2] * w[1];

  00003	8b 45 08	 mov	 eax, DWORD PTR _w$[ebp]
  00006	8b 4d 0c	 mov	 ecx, DWORD PTR _result$[ebp]

; 10   :     result[1] = v[2] * w[0] - v[0] * w[2];

  00009	f3 0f 10 12	 movss	 xmm2, DWORD PTR [edx]
  0000d	f3 0f 10 48 08	 movss	 xmm1, DWORD PTR [eax+8]
  00012	f3 0f 10 40 04	 movss	 xmm0, DWORD PTR [eax+4]
  00017	f3 0f 59 4a 04	 mulss	 xmm1, DWORD PTR [edx+4]
  0001c	f3 0f 59 42 08	 mulss	 xmm0, DWORD PTR [edx+8]
  00021	f3 0f 10 18	 movss	 xmm3, DWORD PTR [eax]
  00025	f3 0f 5c c8	 subss	 xmm1, xmm0
  00029	0f 28 c2	 movaps	 xmm0, xmm2
  0002c	f3 0f 59 40 08	 mulss	 xmm0, DWORD PTR [eax+8]

; 11   :     result[2] = v[0] * w[1] - v[1] * w[0];

  00031	f3 0f 59 50 04	 mulss	 xmm2, DWORD PTR [eax+4]

; 12   : 
; 13   :     return 0;

  00036	33 c0		 xor	 eax, eax
  00038	f3 0f 11 09	 movss	 DWORD PTR [ecx], xmm1
  0003c	0f 28 cb	 movaps	 xmm1, xmm3
  0003f	f3 0f 59 4a 08	 mulss	 xmm1, DWORD PTR [edx+8]
  00044	f3 0f 59 5a 04	 mulss	 xmm3, DWORD PTR [edx+4]
  00049	f3 0f 5c c8	 subss	 xmm1, xmm0
  0004d	f3 0f 5c d3	 subss	 xmm2, xmm3
  00051	f3 0f 11 49 04	 movss	 DWORD PTR [ecx+4], xmm1
  00056	f3 0f 11 51 08	 movss	 DWORD PTR [ecx+8], xmm2

; 14   : }

  0005b	5d		 pop	 ebp
  0005c	c3		 ret	 0
?product@@YAHHQAM00@Z ENDP				; product
_TEXT	ENDS
END
